; Function Attrs: mustprogress uwtable
define internal fastcc void @_ZN7doctest12_GLOBAL__N_113JUnitReporter12log_contextsERNSt7__cxx1119basic_ostringstreamIcSt11char_traitsIcESaIcEEE(ptr noundef nonnull align 8 dereferenceable(112) %0) unnamed_addr #8 align 2 {
  %2 = load ptr, ptr getelementptr inbounds nuw (i8, ptr @_ZN7doctest6detail14g_infoContextsE, i64 8), align 8, !tbaa !269
  %3 = load ptr, ptr @_ZN7doctest6detail14g_infoContextsE, align 8, !tbaa !262
  %4 = ptrtoint ptr %2 to i64
  %5 = ptrtoint ptr %3 to i64
  %6 = sub i64 %4, %5
  %7 = lshr exact i64 %6, 3
  %8 = trunc i64 %7 to i32
  %.not = icmp eq i32 %8, 0
  br i1 %.not, label %.loopexit, label %9

9:                                                ; preds = %1
  %10 = tail call noundef nonnull align 8 dereferenceable(8) ptr @_ZSt16__ostream_insertIcSt11char_traitsIcEERSt13basic_ostreamIT_T0_ES6_PKS3_l(ptr noundef nonnull align 8 dereferenceable(8) %0, ptr noundef nonnull @.str.341, i64 noundef 10)
  %invariant.gep = getelementptr i8, ptr %0, i64 240
  %11 = icmp sgt i32 %8, 0
  br i1 %11, label %.lr.ph.preheader, label %.loopexit

.lr.ph.preheader:                                 ; preds = %9
  %wide.trip.count = and i64 %7, 2147483647
  br label %.lr.ph

.lr.ph:                                           ; preds = %.lr.ph.preheader, %_ZSt4endlIcSt11char_traitsIcEERSt13basic_ostreamIT_T0_ES6_.exit
  %indvars.iv = phi i64 [ 0, %.lr.ph.preheader ], [ %indvars.iv.next, %_ZSt4endlIcSt11char_traitsIcEERSt13basic_ostreamIT_T0_ES6_.exit ]
  %12 = icmp eq i64 %indvars.iv, 0
  %13 = select i1 %12, ptr @.str, ptr @.str.342
  %14 = select i1 %12, i64 0, i64 10
  %15 = tail call noundef nonnull align 8 dereferenceable(8) ptr @_ZSt16__ostream_insertIcSt11char_traitsIcEERSt13basic_ostreamIT_T0_ES6_PKS3_l(ptr noundef nonnull align 8 dereferenceable(8) %0, ptr noundef nonnull %13, i64 noundef %14)
  %16 = getelementptr inbounds nuw ptr, ptr %3, i64 %indvars.iv
  %17 = load ptr, ptr %16, align 8, !tbaa !270
  %18 = load ptr, ptr %17, align 8, !tbaa !31
  %19 = getelementptr inbounds nuw i8, ptr %18, i64 16
  %20 = load ptr, ptr %19, align 8
  tail call void %20(ptr noundef nonnull align 8 dereferenceable(8) %17, ptr noundef nonnull %0)
  %21 = load ptr, ptr %0, align 8, !tbaa !31
  %22 = getelementptr i8, ptr %21, i64 -24
  %23 = load i64, ptr %22, align 8
  %gep = getelementptr i8, ptr %invariant.gep, i64 %23
  %24 = load ptr, ptr %gep, align 8, !tbaa !240
  %.not.i.i.i = icmp eq ptr %24, null
  br i1 %.not.i.i.i, label %25, label %_ZSt13__check_facetISt5ctypeIcEERKT_PS3_.exit.i.i

25:                                               ; preds = %.lr.ph
  tail call void @_ZSt16__throw_bad_castv() #50
  unreachable

_ZSt13__check_facetISt5ctypeIcEERKT_PS3_.exit.i.i: ; preds = %.lr.ph
  %26 = getelementptr inbounds nuw i8, ptr %24, i64 56
  %27 = load i8, ptr %26, align 8, !tbaa !246
  %.not.i1.i.i = icmp eq i8 %27, 0
  br i1 %.not.i1.i.i, label %31, label %28

28:                                               ; preds = %_ZSt13__check_facetISt5ctypeIcEERKT_PS3_.exit.i.i
  %29 = getelementptr inbounds nuw i8, ptr %24, i64 67
  %30 = load i8, ptr %29, align 1, !tbaa !38
  br label %_ZSt4endlIcSt11char_traitsIcEERSt13basic_ostreamIT_T0_ES6_.exit

31:                                               ; preds = %_ZSt13__check_facetISt5ctypeIcEERKT_PS3_.exit.i.i
  tail call void @_ZNKSt5ctypeIcE13_M_widen_initEv(ptr noundef nonnull align 8 dereferenceable(570) %24)
  %32 = load ptr, ptr %24, align 8, !tbaa !31
  %33 = getelementptr inbounds nuw i8, ptr %32, i64 48
  %34 = load ptr, ptr %33, align 8
  %35 = tail call noundef signext i8 %34(ptr noundef nonnull align 8 dereferenceable(570) %24, i8 noundef signext 10)
  br label %_ZSt4endlIcSt11char_traitsIcEERSt13basic_ostreamIT_T0_ES6_.exit

_ZSt4endlIcSt11char_traitsIcEERSt13basic_ostreamIT_T0_ES6_.exit: ; preds = %28, %31
  %.0.i.i.i = phi i8 [ %30, %28 ], [ %35, %31 ]
  %36 = tail call noundef nonnull align 8 dereferenceable(8) ptr @_ZNSo3putEc(ptr noundef nonnull align 8 dereferenceable(8) %0, i8 noundef signext %.0.i.i.i)
  %37 = tail call noundef nonnull align 8 dereferenceable(8) ptr @_ZNSo5flushEv(ptr noundef nonnull align 8 dereferenceable(8) %36)
  %indvars.iv.next = add nuw nsw i64 %indvars.iv, 1
  %exitcond.not = icmp eq i64 %indvars.iv.next, %wide.trip.count
  br i1 %exitcond.not, label %.loopexit, label %.lr.ph, !llvm.loop !682

.loopexit:                                        ; preds = %_ZSt4endlIcSt11char_traitsIcEERSt13basic_ostreamIT_T0_ES6_.exit, %9, %1
  ret void
}